target datalayout = "e-m:e-p270:32:32-p271:32:32-p272:64:64-i64:64-i128:128-f80:128-n8:16:32:64-S128"
target triple = "x86_64-pc-linux-gnu"

%struct.TclStubs = type { i32, ptr, ptr, ptr, ptr, ptr, ptr, ptr, ptr, ptr, ptr, ptr, ptr, ptr, ptr, ptr, ptr, ptr, ptr, ptr, ptr, ptr, ptr, ptr, ptr, ptr, ptr, ptr, ptr, ptr, ptr, ptr, ptr, ptr, ptr, ptr, ptr, ptr, ptr, ptr, ptr, ptr, ptr, ptr, ptr, ptr, ptr, ptr, ptr, ptr, ptr, ptr, ptr, ptr, ptr, ptr, ptr, ptr, ptr, ptr, ptr, ptr, ptr, ptr, ptr, ptr, ptr, ptr, ptr, ptr, ptr, ptr, ptr, ptr, ptr, ptr, ptr, ptr, ptr, ptr, ptr, ptr, ptr, ptr, ptr, ptr, ptr, ptr, ptr, ptr, ptr, ptr, ptr, ptr, ptr, ptr, ptr, ptr, ptr, ptr, ptr, ptr, ptr, ptr, ptr, ptr, ptr, ptr, ptr, ptr, ptr, ptr, ptr, ptr, ptr, ptr, ptr, ptr, ptr, ptr, ptr, ptr, ptr, ptr, ptr, ptr, ptr, ptr, ptr, ptr, ptr, ptr, ptr, ptr, ptr, ptr, ptr, ptr, ptr, ptr, ptr, ptr, ptr, ptr, ptr, ptr, ptr, ptr, ptr, ptr, ptr, ptr, ptr, ptr, ptr, ptr, ptr, ptr, ptr, ptr, ptr, ptr, ptr, ptr, ptr, ptr, ptr, ptr, ptr, ptr, ptr, ptr, ptr, ptr, ptr, ptr, ptr, ptr, ptr, ptr, ptr, ptr, ptr, ptr, ptr, ptr, ptr, ptr, ptr, ptr, ptr, ptr, ptr, ptr, ptr, ptr, ptr, ptr, ptr, ptr, ptr, ptr, ptr, ptr, ptr, ptr, ptr, ptr, ptr, ptr, ptr, ptr, ptr, ptr, ptr, ptr, ptr, ptr, ptr, ptr, ptr, ptr, ptr, ptr, ptr, ptr, ptr, ptr, ptr, ptr, ptr, ptr, ptr, ptr, ptr, ptr, ptr, ptr, ptr, ptr, ptr, ptr, ptr, ptr, ptr, ptr, ptr, ptr, ptr, ptr, ptr, ptr, ptr, ptr, ptr, ptr, ptr, ptr, ptr, ptr, ptr, ptr, ptr, ptr, ptr, ptr, ptr, ptr, ptr, ptr, ptr, ptr, ptr, ptr, ptr, ptr, ptr, ptr, ptr, ptr, ptr, ptr, ptr, ptr, ptr, ptr, ptr, ptr, ptr, ptr, ptr, ptr, ptr, ptr, ptr, ptr, ptr, ptr, ptr, ptr, ptr, ptr, ptr, ptr, ptr, ptr, ptr, ptr, ptr, ptr, ptr, ptr, ptr, ptr, ptr, ptr, ptr, ptr, ptr, ptr, ptr, ptr, ptr, ptr, ptr, ptr, ptr, ptr, ptr, ptr, ptr, ptr, ptr, ptr, ptr, ptr, ptr, ptr, ptr, ptr, ptr, ptr, ptr, ptr, ptr, ptr, ptr, ptr, ptr, ptr, ptr, ptr, ptr, ptr, ptr, ptr, ptr, ptr, ptr, ptr, ptr, ptr, ptr, ptr, ptr, ptr, ptr, ptr, ptr, ptr, ptr, ptr, ptr, ptr, ptr, ptr, ptr, ptr, ptr, ptr, ptr, ptr, ptr, ptr, ptr, ptr, ptr, ptr, ptr, ptr, ptr, ptr, ptr, ptr, ptr, ptr, ptr, ptr, ptr, ptr, ptr, ptr, ptr, ptr, ptr, ptr, ptr, ptr, ptr, ptr, ptr, ptr, ptr, ptr, ptr, ptr, ptr, ptr, ptr, ptr, ptr, ptr, ptr, ptr, ptr, ptr, ptr, ptr, ptr, ptr, ptr, ptr, ptr, ptr, ptr, ptr, ptr, ptr, ptr, ptr, ptr, ptr, ptr, ptr, ptr, ptr, ptr, ptr, ptr, ptr, ptr, ptr, ptr, ptr, ptr, ptr, ptr, ptr, ptr, ptr, ptr, ptr, ptr, ptr, ptr, ptr, ptr, ptr, ptr, ptr, ptr, ptr, ptr, ptr, ptr, ptr, ptr, ptr, ptr, ptr, ptr, ptr, ptr, ptr, ptr, ptr, ptr, ptr, ptr, ptr, ptr, ptr, ptr, ptr, ptr, ptr, ptr, ptr, ptr, ptr, ptr, ptr, ptr, ptr, ptr, ptr, ptr, ptr, ptr, ptr, ptr, ptr, ptr, ptr, ptr, ptr, ptr, ptr, ptr, ptr, ptr, ptr, ptr, ptr, ptr, ptr, ptr, ptr, ptr, ptr, ptr, ptr, ptr, ptr, ptr, ptr, ptr, ptr, ptr, ptr, ptr, ptr, ptr, ptr, ptr, ptr, ptr, ptr, ptr, ptr, ptr, ptr, ptr, ptr, ptr, ptr, ptr, ptr, ptr, ptr, ptr, ptr, ptr, ptr, ptr, ptr, ptr, ptr, ptr, ptr, ptr, ptr, ptr, ptr, ptr, ptr, ptr, ptr, ptr, ptr, ptr, ptr, ptr, ptr, ptr, ptr, ptr, ptr, ptr, ptr, ptr, ptr, ptr, ptr, ptr, ptr, ptr, ptr, ptr, ptr, ptr, ptr, ptr, ptr, ptr, ptr, ptr, ptr, ptr, ptr, ptr, ptr, ptr, ptr, ptr, ptr, ptr, ptr, ptr, ptr, ptr, ptr, ptr, ptr, ptr, ptr, ptr, ptr, ptr, ptr, ptr, ptr, ptr, ptr, ptr, ptr, ptr, ptr, ptr, ptr, ptr, ptr, ptr, ptr, ptr, ptr, ptr, ptr, ptr, ptr, ptr, ptr, ptr, ptr, ptr, ptr, ptr, ptr, ptr, ptr, ptr, ptr, ptr }
%struct.SqliteDb = type { ptr, ptr, ptr, ptr, ptr, ptr, ptr, ptr, ptr, ptr, i32, ptr, ptr, ptr, ptr, ptr, ptr, ptr, ptr, i32, ptr, ptr, ptr, i32, i32, ptr, i32, i32, i32, i32, i32, i32, i32 }
%struct.IncrblobChannel = type { ptr, ptr, i64, i32, ptr, ptr, ptr }

@tclStubsPtr = external global ptr, align 8
@createIncrblobChannel.count = internal global i32 0, align 4
@.str.225 = private unnamed_addr constant [12 x i8] c"incrblob_%d\00", align 1

; Function Attrs: nounwind uwtable
define internal i32 @createIncrblobChannel(ptr noundef %0, ptr noundef %1, ptr noundef %2, ptr noundef %3, ptr noundef %4, i64 noundef %5, i32 noundef %6) #0 {
  %8 = alloca i32, align 4
  %9 = alloca ptr, align 8
  %10 = alloca ptr, align 8
  %11 = alloca ptr, align 8
  %12 = alloca ptr, align 8
  %13 = alloca ptr, align 8
  %14 = alloca i64, align 8
  %15 = alloca i32, align 4
  %16 = alloca ptr, align 8
  %17 = alloca ptr, align 8
  %18 = alloca ptr, align 8
  %19 = alloca i32, align 4
  %20 = alloca i32, align 4
  %21 = alloca [64 x i8], align 16
  %22 = alloca i32, align 4
  store ptr %0, ptr %9, align 8, !tbaa !3
  store ptr %1, ptr %10, align 8, !tbaa !30
  store ptr %2, ptr %11, align 8, !tbaa !18
  store ptr %3, ptr %12, align 8, !tbaa !18
  store ptr %4, ptr %13, align 8, !tbaa !18
  store i64 %5, ptr %14, align 8, !tbaa !97
  store i32 %6, ptr %15, align 4, !tbaa !8
  call void @llvm.lifetime.start.p0(i64 8, ptr %16) #10
  call void @llvm.lifetime.start.p0(i64 8, ptr %17) #10
  %23 = load ptr, ptr %10, align 8, !tbaa !30
  %24 = getelementptr inbounds nuw %struct.SqliteDb, ptr %23, i32 0, i32 0
  %25 = load ptr, ptr %24, align 8, !tbaa !34
  store ptr %25, ptr %17, align 8, !tbaa !53
  call void @llvm.lifetime.start.p0(i64 8, ptr %18) #10
  call void @llvm.lifetime.start.p0(i64 4, ptr %19) #10
  call void @llvm.lifetime.start.p0(i64 4, ptr %20) #10
  %26 = load i32, ptr %15, align 4, !tbaa !8
  %27 = icmp ne i32 %26, 0
  %28 = select i1 %27, i32 0, i32 4
  %29 = or i32 2, %28
  store i32 %29, ptr %20, align 4, !tbaa !8
  call void @llvm.lifetime.start.p0(i64 64, ptr %21) #10
  %30 = load ptr, ptr %17, align 8, !tbaa !53
  %31 = load ptr, ptr %11, align 8, !tbaa !18
  %32 = load ptr, ptr %12, align 8, !tbaa !18
  %33 = load ptr, ptr %13, align 8, !tbaa !18
  %34 = load i64, ptr %14, align 8, !tbaa !97
  %35 = load i32, ptr %15, align 4, !tbaa !8
  %36 = icmp ne i32 %35, 0
  %37 = xor i1 %36, true
  %38 = zext i1 %37 to i32
  %39 = call i32 @sqlite3_blob_open(ptr noundef %30, ptr noundef %31, ptr noundef %32, ptr noundef %33, i64 noundef %34, i32 noundef %38, ptr noundef %18)
  store i32 %39, ptr %19, align 4, !tbaa !8
  %40 = load i32, ptr %19, align 4, !tbaa !8
  %41 = icmp ne i32 %40, 0
  br i1 %41, label %42, label %51

42:                                               ; preds = %7
  %43 = load ptr, ptr @tclStubsPtr, align 8, !tbaa !10
  %44 = getelementptr inbounds nuw %struct.TclStubs, ptr %43, i32 0, i32 234
  %45 = load ptr, ptr %44, align 8, !tbaa !41
  %46 = load ptr, ptr %9, align 8, !tbaa !3
  %47 = load ptr, ptr %10, align 8, !tbaa !30
  %48 = getelementptr inbounds nuw %struct.SqliteDb, ptr %47, i32 0, i32 0
  %49 = load ptr, ptr %48, align 8, !tbaa !34
  %50 = call ptr @sqlite3_errmsg(ptr noundef %49)
  call void %45(ptr noundef %46, ptr noundef %50, ptr noundef inttoptr (i64 1 to ptr))
  store i32 1, ptr %8, align 4
  store i32 1, ptr %22, align 4
  br label %124

51:                                               ; preds = %7
  %52 = load ptr, ptr @tclStubsPtr, align 8, !tbaa !10
  %53 = getelementptr inbounds nuw %struct.TclStubs, ptr %52, i32 0, i32 5
  %54 = load ptr, ptr %53, align 8, !tbaa !29
  %55 = call ptr %54(i32 noundef 56)
  store ptr %55, ptr %16, align 8, !tbaa !198
  %56 = load ptr, ptr %16, align 8, !tbaa !198
  call void @llvm.memset.p0.i64(ptr align 8 %56, i8 0, i64 56, i1 false)
  %57 = load ptr, ptr %18, align 8, !tbaa !199
  %58 = load ptr, ptr %16, align 8, !tbaa !198
  %59 = getelementptr inbounds nuw %struct.IncrblobChannel, ptr %58, i32 0, i32 0
  store ptr %57, ptr %59, align 8, !tbaa !201
  %60 = load i32, ptr %20, align 4, !tbaa !8
  %61 = and i32 %60, 4
  %62 = icmp eq i32 %61, 0
  br i1 %62, label %63, label %68

63:                                               ; preds = %51
  %64 = load ptr, ptr %16, align 8, !tbaa !198
  %65 = getelementptr inbounds nuw %struct.IncrblobChannel, ptr %64, i32 0, i32 3
  %66 = load i32, ptr %65, align 8, !tbaa !204
  %67 = or i32 %66, 4
  store i32 %67, ptr %65, align 8, !tbaa !204
  br label %68

68:                                               ; preds = %63, %51
  %69 = getelementptr inbounds [64 x i8], ptr %21, i64 0, i64 0
  %70 = load i32, ptr @createIncrblobChannel.count, align 4, !tbaa !8
  %71 = add nsw i32 %70, 1
  store i32 %71, ptr @createIncrblobChannel.count, align 4, !tbaa !8
  %72 = call ptr (i32, ptr, ptr, ...) @sqlite3_snprintf(i32 noundef 64, ptr noundef %69, ptr noundef @.str.225, i32 noundef %71)
  %73 = load ptr, ptr @tclStubsPtr, align 8, !tbaa !10
  %74 = getelementptr inbounds nuw %struct.TclStubs, ptr %73, i32 0, i32 90
  %75 = load ptr, ptr %74, align 8, !tbaa !205
  %76 = getelementptr inbounds [64 x i8], ptr %21, i64 0, i64 0
  %77 = load ptr, ptr %16, align 8, !tbaa !198
  %78 = load i32, ptr %20, align 4, !tbaa !8
  %79 = call ptr %75(ptr noundef @IncrblobChannelType, ptr noundef %76, ptr noundef %77, i32 noundef %78)
  %80 = load ptr, ptr %16, align 8, !tbaa !198
  %81 = getelementptr inbounds nuw %struct.IncrblobChannel, ptr %80, i32 0, i32 4
  store ptr %79, ptr %81, align 8, !tbaa !206
  %82 = load ptr, ptr @tclStubsPtr, align 8, !tbaa !10
  %83 = getelementptr inbounds nuw %struct.TclStubs, ptr %82, i32 0, i32 212
  %84 = load ptr, ptr %83, align 8, !tbaa !207
  %85 = load ptr, ptr %9, align 8, !tbaa !3
  %86 = load ptr, ptr %16, align 8, !tbaa !198
  %87 = getelementptr inbounds nuw %struct.IncrblobChannel, ptr %86, i32 0, i32 4
  %88 = load ptr, ptr %87, align 8, !tbaa !206
  call void %84(ptr noundef %85, ptr noundef %88)
  %89 = load ptr, ptr %10, align 8, !tbaa !30
  %90 = getelementptr inbounds nuw %struct.SqliteDb, ptr %89, i32 0, i32 25
  %91 = load ptr, ptr %90, align 8, !tbaa !208
  %92 = load ptr, ptr %16, align 8, !tbaa !198
  %93 = getelementptr inbounds nuw %struct.IncrblobChannel, ptr %92, i32 0, i32 5
  store ptr %91, ptr %93, align 8, !tbaa !209
  %94 = load ptr, ptr %16, align 8, !tbaa !198
  %95 = getelementptr inbounds nuw %struct.IncrblobChannel, ptr %94, i32 0, i32 6
  store ptr null, ptr %95, align 8, !tbaa !210
  %96 = load ptr, ptr %16, align 8, !tbaa !198
  %97 = getelementptr inbounds nuw %struct.IncrblobChannel, ptr %96, i32 0, i32 5
  %98 = load ptr, ptr %97, align 8, !tbaa !209
  %99 = icmp ne ptr %98, null
  br i1 %99, label %100, label %106

100:                                              ; preds = %68
  %101 = load ptr, ptr %16, align 8, !tbaa !198
  %102 = load ptr, ptr %16, align 8, !tbaa !198
  %103 = getelementptr inbounds nuw %struct.IncrblobChannel, ptr %102, i32 0, i32 5
  %104 = load ptr, ptr %103, align 8, !tbaa !209
  %105 = getelementptr inbounds nuw %struct.IncrblobChannel, ptr %104, i32 0, i32 6
  store ptr %101, ptr %105, align 8, !tbaa !210
  br label %106

106:                                              ; preds = %100, %68
  %107 = load ptr, ptr %16, align 8, !tbaa !198
  %108 = load ptr, ptr %10, align 8, !tbaa !30
  %109 = getelementptr inbounds nuw %struct.SqliteDb, ptr %108, i32 0, i32 25
  store ptr %107, ptr %109, align 8, !tbaa !208
  %110 = load ptr, ptr %10, align 8, !tbaa !30
  %111 = load ptr, ptr %16, align 8, !tbaa !198
  %112 = getelementptr inbounds nuw %struct.IncrblobChannel, ptr %111, i32 0, i32 1
  store ptr %110, ptr %112, align 8, !tbaa !211
  %113 = load ptr, ptr @tclStubsPtr, align 8, !tbaa !10
  %114 = getelementptr inbounds nuw %struct.TclStubs, ptr %113, i32 0, i32 234
  %115 = load ptr, ptr %114, align 8, !tbaa !41
  %116 = load ptr, ptr %9, align 8, !tbaa !3
  %117 = load ptr, ptr @tclStubsPtr, align 8, !tbaa !10
  %118 = getelementptr inbounds nuw %struct.TclStubs, ptr %117, i32 0, i32 158
  %119 = load ptr, ptr %118, align 8, !tbaa !212
  %120 = load ptr, ptr %16, align 8, !tbaa !198
  %121 = getelementptr inbounds nuw %struct.IncrblobChannel, ptr %120, i32 0, i32 4
  %122 = load ptr, ptr %121, align 8, !tbaa !206
  %123 = call ptr %119(ptr noundef %122)
  call void %115(ptr noundef %116, ptr noundef %123, ptr noundef inttoptr (i64 1 to ptr))
  store i32 0, ptr %8, align 4
  store i32 1, ptr %22, align 4
  br label %124

124:                                              ; preds = %106, %42
  call void @llvm.lifetime.end.p0(i64 64, ptr %21) #10
  call void @llvm.lifetime.end.p0(i64 4, ptr %20) #10
  call void @llvm.lifetime.end.p0(i64 4, ptr %19) #10
  call void @llvm.lifetime.end.p0(i64 8, ptr %18) #10
  call void @llvm.lifetime.end.p0(i64 8, ptr %17) #10
  call void @llvm.lifetime.end.p0(i64 8, ptr %16) #10
  %125 = load i32, ptr %8, align 4
  ret i32 %125
}