; Function Attrs: nounwind uwtable
define internal fastcc range(i32 0, 2) i32 @createIncrblobChannel(ptr noundef %0, ptr noundef %1, ptr noundef %2, ptr noundef %3, ptr noundef %4, i64 noundef %5, i32 noundef range(i32 0, 2) %6) unnamed_addr #0 {
  %8 = alloca ptr, align 8
  %9 = alloca [64 x i8], align 16
  %10 = load ptr, ptr %1, align 8, !tbaa !26
  call void @llvm.lifetime.start.p0(i64 8, ptr nonnull %8) #14
  %.not = icmp eq i32 %6, 0
  %11 = select i1 %.not, i32 6, i32 2
  call void @llvm.lifetime.start.p0(i64 64, ptr nonnull %9) #14
  %12 = xor i32 %6, 1
  %13 = call i32 @sqlite3_blob_open(ptr noundef %10, ptr noundef %2, ptr noundef %3, ptr noundef %4, i64 noundef %5, i32 noundef %12, ptr noundef nonnull %8) #14
  %.not33 = icmp eq i32 %13, 0
  %14 = load ptr, ptr @tclStubsPtr, align 8, !tbaa !3
  br i1 %.not33, label %20, label %15

15:                                               ; preds = %7
  %16 = getelementptr inbounds nuw i8, ptr %14, i64 1872
  %17 = load ptr, ptr %16, align 8, !tbaa !35
  %18 = load ptr, ptr %1, align 8, !tbaa !26
  %19 = call ptr @sqlite3_errmsg(ptr noundef %18) #14
  call void %17(ptr noundef %0, ptr noundef %19, ptr noundef nonnull inttoptr (i64 1 to ptr)) #14
  br label %55

20:                                               ; preds = %7
  %21 = getelementptr inbounds nuw i8, ptr %14, i64 40
  %22 = load ptr, ptr %21, align 8, !tbaa !23
  %23 = call ptr %22(i32 noundef 56) #14
  %24 = getelementptr inbounds nuw i8, ptr %23, i64 8
  call void @llvm.memset.p0.i64(ptr noundef nonnull align 8 dereferenceable(56) %24, i8 0, i64 48, i1 false)
  %25 = load ptr, ptr %8, align 8, !tbaa !187
  store ptr %25, ptr %23, align 8, !tbaa !189
  br i1 %.not, label %28, label %26

26:                                               ; preds = %20
  %27 = getelementptr inbounds nuw i8, ptr %23, i64 24
  store i32 4, ptr %27, align 8, !tbaa !192
  br label %28

28:                                               ; preds = %26, %20
  %29 = load i32, ptr @createIncrblobChannel.count, align 4, !tbaa !12
  %30 = add nsw i32 %29, 1
  store i32 %30, ptr @createIncrblobChannel.count, align 4, !tbaa !12
  %31 = call ptr (i32, ptr, ptr, ...) @sqlite3_snprintf(i32 noundef 64, ptr noundef nonnull %9, ptr noundef nonnull @.str.225, i32 noundef %30) #14
  %32 = load ptr, ptr @tclStubsPtr, align 8, !tbaa !3
  %33 = getelementptr inbounds nuw i8, ptr %32, i64 720
  %34 = load ptr, ptr %33, align 8, !tbaa !193
  %35 = call ptr %34(ptr noundef nonnull @IncrblobChannelType, ptr noundef nonnull %9, ptr noundef nonnull %23, i32 noundef %11) #14
  %36 = getelementptr inbounds nuw i8, ptr %23, i64 32
  store ptr %35, ptr %36, align 8, !tbaa !194
  %37 = load ptr, ptr @tclStubsPtr, align 8, !tbaa !3
  %38 = getelementptr inbounds nuw i8, ptr %37, i64 1696
  %39 = load ptr, ptr %38, align 8, !tbaa !195
  call void %39(ptr noundef %0, ptr noundef %35) #14
  %40 = getelementptr inbounds nuw i8, ptr %1, i64 192
  %41 = load ptr, ptr %40, align 8, !tbaa !196
  %42 = getelementptr inbounds nuw i8, ptr %23, i64 40
  store ptr %41, ptr %42, align 8, !tbaa !197
  %43 = getelementptr inbounds nuw i8, ptr %23, i64 48
  store ptr null, ptr %43, align 8, !tbaa !198
  %.not34 = icmp eq ptr %41, null
  br i1 %.not34, label %46, label %44

44:                                               ; preds = %28
  %45 = getelementptr inbounds nuw i8, ptr %41, i64 48
  store ptr %23, ptr %45, align 8, !tbaa !198
  br label %46

46:                                               ; preds = %44, %28
  store ptr %23, ptr %40, align 8, !tbaa !196
  %47 = getelementptr inbounds nuw i8, ptr %23, i64 8
  store ptr %1, ptr %47, align 8, !tbaa !199
  %48 = load ptr, ptr @tclStubsPtr, align 8, !tbaa !3
  %49 = getelementptr inbounds nuw i8, ptr %48, i64 1872
  %50 = load ptr, ptr %49, align 8, !tbaa !35
  %51 = getelementptr inbounds nuw i8, ptr %48, i64 1264
  %52 = load ptr, ptr %51, align 8, !tbaa !200
  %53 = load ptr, ptr %36, align 8, !tbaa !194
  %54 = call ptr %52(ptr noundef %53) #14
  call void %50(ptr noundef %0, ptr noundef %54, ptr noundef nonnull inttoptr (i64 1 to ptr)) #14
  br label %55

55:                                               ; preds = %46, %15
  %.0 = phi i32 [ 1, %15 ], [ 0, %46 ]
  call void @llvm.lifetime.end.p0(i64 64, ptr nonnull %9) #14
  call void @llvm.lifetime.end.p0(i64 8, ptr nonnull %8) #14
  ret i32 %.0
}